; ModuleID = '24/2610.c'
source_filename = "24/2610.c"
target datalayout = "e-m:e-p270:32:32-p271:32:32-p272:64:64-i64:64-f80:128-n8:16:32:64-S128"
target triple = "x86_64-pc-linux-gnu"

@.str = private unnamed_addr constant [3 x i8] c"%d\00", align 1
@.str.1 = private unnamed_addr constant [3 x i8] c"%s\00", align 1
@.str.2 = private unnamed_addr constant [4 x i8] c"%s\0A\00", align 1

; Function Attrs: noinline nounwind uwtable
define dso_local i32 @main() #0 {
  %1 = alloca i32, align 4
  %2 = alloca i32, align 4
  %3 = alloca i32, align 4
  %4 = alloca i32, align 4
  %5 = alloca [250 x i32], align 16
  %6 = alloca [250 x i32], align 16
  %7 = alloca [250 x [100 x i8]], align 16
  %8 = alloca i32, align 4
  %9 = alloca i32, align 4
  store i32 0, i32* %1, align 4
  %10 = call i32 (i8*, ...) @__isoc99_scanf(i8* getelementptr inbounds ([3 x i8], [3 x i8]* @.str, i64 0, i64 0), i32* %2)
  store i32 0, i32* %3, align 4
  br label %11

11:                                               ; preds = %36, %0
  %12 = load i32, i32* %3, align 4
  %13 = load i32, i32* %2, align 4
  %14 = icmp slt i32 %12, %13
  br i1 %14, label %15, label %39

15:                                               ; preds = %11
  %16 = load i32, i32* %3, align 4
  %17 = sext i32 %16 to i64
  %18 = getelementptr inbounds [250 x [100 x i8]], [250 x [100 x i8]]* %7, i64 0, i64 %17
  %19 = call i32 (i8*, ...) @__isoc99_scanf(i8* getelementptr inbounds ([3 x i8], [3 x i8]* @.str.1, i64 0, i64 0), [100 x i8]* %18)
  %20 = load i32, i32* %3, align 4
  %21 = sext i32 %20 to i64
  %22 = getelementptr inbounds [250 x [100 x i8]], [250 x [100 x i8]]* %7, i64 0, i64 %21
  %23 = getelementptr inbounds [100 x i8], [100 x i8]* %22, i64 0, i64 0
  %24 = call i64 @strlen(i8* %23) #3
  %25 = trunc i64 %24 to i32
  %26 = load i32, i32* %3, align 4
  %27 = sext i32 %26 to i64
  %28 = getelementptr inbounds [250 x i32], [250 x i32]* %5, i64 0, i64 %27
  store i32 %25, i32* %28, align 4
  %29 = load i32, i32* %3, align 4
  %30 = sext i32 %29 to i64
  %31 = getelementptr inbounds [250 x i32], [250 x i32]* %5, i64 0, i64 %30
  %32 = load i32, i32* %31, align 4
  %33 = load i32, i32* %3, align 4
  %34 = sext i32 %33 to i64
  %35 = getelementptr inbounds [250 x i32], [250 x i32]* %6, i64 0, i64 %34
  store i32 %32, i32* %35, align 4
  br label %36

36:                                               ; preds = %15
  %37 = load i32, i32* %3, align 4
  %38 = add nsw i32 %37, 1
  store i32 %38, i32* %3, align 4
  br label %11

39:                                               ; preds = %11
  %40 = load i32, i32* %3, align 4
  store i32 %40, i32* %8, align 4
  store i32 0, i32* %9, align 4
  br label %41

41:                                               ; preds = %88, %39
  %42 = load i32, i32* %9, align 4
  %43 = load i32, i32* %8, align 4
  %44 = sub nsw i32 %43, 1
  %45 = icmp slt i32 %42, %44
  br i1 %45, label %46, label %91

46:                                               ; preds = %41
  store i32 0, i32* %3, align 4
  br label %47

47:                                               ; preds = %84, %46
  %48 = load i32, i32* %3, align 4
  %49 = load i32, i32* %8, align 4
  %50 = load i32, i32* %9, align 4
  %51 = sub nsw i32 %49, %50
  %52 = sub nsw i32 %51, 1
  %53 = icmp slt i32 %48, %52
  br i1 %53, label %54, label %87

54:                                               ; preds = %47
  %55 = load i32, i32* %3, align 4
  %56 = sext i32 %55 to i64
  %57 = getelementptr inbounds [250 x i32], [250 x i32]* %5, i64 0, i64 %56
  %58 = load i32, i32* %57, align 4
  %59 = load i32, i32* %3, align 4
  %60 = add nsw i32 %59, 1
  %61 = sext i32 %60 to i64
  %62 = getelementptr inbounds [250 x i32], [250 x i32]* %5, i64 0, i64 %61
  %63 = load i32, i32* %62, align 4
  %64 = icmp sgt i32 %58, %63
  br i1 %64, label %65, label %83

65:                                               ; preds = %54
  %66 = load i32, i32* %3, align 4
  %67 = sext i32 %66 to i64
  %68 = getelementptr inbounds [250 x i32], [250 x i32]* %5, i64 0, i64 %67
  %69 = load i32, i32* %68, align 4
  store i32 %69, i32* %4, align 4
  %70 = load i32, i32* %3, align 4
  %71 = add nsw i32 %70, 1
  %72 = sext i32 %71 to i64
  %73 = getelementptr inbounds [250 x i32], [250 x i32]* %5, i64 0, i64 %72
  %74 = load i32, i32* %73, align 4
  %75 = load i32, i32* %3, align 4
  %76 = sext i32 %75 to i64
  %77 = getelementptr inbounds [250 x i32], [250 x i32]* %5, i64 0, i64 %76
  store i32 %74, i32* %77, align 4
  %78 = load i32, i32* %4, align 4
  %79 = load i32, i32* %3, align 4
  %80 = add nsw i32 %79, 1
  %81 = sext i32 %80 to i64
  %82 = getelementptr inbounds [250 x i32], [250 x i32]* %5, i64 0, i64 %81
  store i32 %78, i32* %82, align 4
  br label %83

83:                                               ; preds = %65, %54
  br label %84

84:                                               ; preds = %83
  %85 = load i32, i32* %3, align 4
  %86 = add nsw i32 %85, 1
  store i32 %86, i32* %3, align 4
  br label %47

87:                                               ; preds = %47
  br label %88

88:                                               ; preds = %87
  %89 = load i32, i32* %9, align 4
  %90 = add nsw i32 %89, 1
  store i32 %90, i32* %9, align 4
  br label %41

91:                                               ; preds = %41
  store i32 0, i32* %3, align 4
  br label %92

92:                                               ; preds = %114, %91
  %93 = load i32, i32* %3, align 4
  %94 = load i32, i32* %8, align 4
  %95 = icmp slt i32 %93, %94
  br i1 %95, label %96, label %117

96:                                               ; preds = %92
  %97 = load i32, i32* %3, align 4
  %98 = sext i32 %97 to i64
  %99 = getelementptr inbounds [250 x i32], [250 x i32]* %6, i64 0, i64 %98
  %100 = load i32, i32* %99, align 4
  %101 = load i32, i32* %8, align 4
  %102 = sub nsw i32 %101, 1
  %103 = sext i32 %102 to i64
  %104 = getelementptr inbounds [250 x i32], [250 x i32]* %5, i64 0, i64 %103
  %105 = load i32, i32* %104, align 4
  %106 = icmp eq i32 %100, %105
  br i1 %106, label %107, label %113

107:                                              ; preds = %96
  %108 = load i32, i32* %3, align 4
  %109 = sext i32 %108 to i64
  %110 = getelementptr inbounds [250 x [100 x i8]], [250 x [100 x i8]]* %7, i64 0, i64 %109
  %111 = getelementptr inbounds [100 x i8], [100 x i8]* %110, i64 0, i64 0
  %112 = call i32 (i8*, ...) @printf(i8* getelementptr inbounds ([4 x i8], [4 x i8]* @.str.2, i64 0, i64 0), i8* %111)
  br label %117

113:                                              ; preds = %96
  br label %114

114:                                              ; preds = %113
  %115 = load i32, i32* %3, align 4
  %116 = add nsw i32 %115, 1
  store i32 %116, i32* %3, align 4
  br label %92

117:                                              ; preds = %107, %92
  store i32 0, i32* %3, align 4
  br label %118

118:                                              ; preds = %137, %117
  %119 = load i32, i32* %3, align 4
  %120 = load i32, i32* %8, align 4
  %121 = icmp slt i32 %119, %120
  br i1 %121, label %122, label %140

122:                                              ; preds = %118
  %123 = load i32, i32* %3, align 4
  %124 = sext i32 %123 to i64
  %125 = getelementptr inbounds [250 x i32], [250 x i32]* %6, i64 0, i64 %124
  %126 = load i32, i32* %125, align 4
  %127 = getelementptr inbounds [250 x i32], [250 x i32]* %5, i64 0, i64 0
  %128 = load i32, i32* %127, align 16
  %129 = icmp eq i32 %126, %128
  br i1 %129, label %130, label %136

130:                                              ; preds = %122
  %131 = load i32, i32* %3, align 4
  %132 = sext i32 %131 to i64
  %133 = getelementptr inbounds [250 x [100 x i8]], [250 x [100 x i8]]* %7, i64 0, i64 %132
  %134 = getelementptr inbounds [100 x i8], [100 x i8]* %133, i64 0, i64 0
  %135 = call i32 (i8*, ...) @printf(i8* getelementptr inbounds ([4 x i8], [4 x i8]* @.str.2, i64 0, i64 0), i8* %134)
  br label %140

136:                                              ; preds = %122
  br label %137

137:                                              ; preds = %136
  %138 = load i32, i32* %3, align 4
  %139 = add nsw i32 %138, 1
  store i32 %139, i32* %3, align 4
  br label %118

140:                                              ; preds = %130, %118
  ret i32 0
}

declare dso_local i32 @__isoc99_scanf(i8*, ...) #1

; Function Attrs: nounwind readonly
declare dso_local i64 @strlen(i8*) #2

declare dso_local i32 @printf(i8*, ...) #1


!llvm.module.flags = !{!0}
!llvm.ident = !{!1}

!0 = !{i32 1, !"wchar_size", i32 4}
!1 = !{!"clang version 10.0.0-4ubuntu1 "}
